; Function Attrs: nounwind uwtable
define internal zeroext i1 @HIDAPI_DriverPS5_IsSupportedDevice(ptr noundef readonly captures(address_is_null) %0, ptr readnone captures(none) %1, i32 noundef %2, i16 noundef zeroext %3, i16 noundef zeroext %4, i16 zeroext %5, i32 %6, i32 %7, i32 %8, i32 %9) #0 {
  %11 = alloca [64 x i8], align 16
  call void @llvm.lifetime.start.p0(i64 64, ptr nonnull %11) #9
  %12 = icmp eq i32 %2, 6
  br i1 %12, label %25, label %13

13:                                               ; preds = %10
  %14 = tail call zeroext i1 @HIDAPI_SupportsPlaystationDetection(i16 noundef zeroext %3, i16 noundef zeroext %4) #9
  br i1 %14, label %15, label %25

15:                                               ; preds = %13
  %.not = icmp eq ptr %0, null
  br i1 %.not, label %25, label %16

16:                                               ; preds = %15
  %17 = getelementptr inbounds nuw i8, ptr %0, i64 128
  %18 = load ptr, ptr %17, align 8
  %.not12 = icmp eq ptr %18, null
  br i1 %.not12, label %25, label %19

19:                                               ; preds = %16
  call void @llvm.memset.p0.i64(ptr noundef nonnull align 16 dereferenceable(64) %11, i8 0, i64 64, i1 false)
  store i8 3, ptr %11, align 16
  %20 = call i32 @SDL_hid_get_feature_report_REAL(ptr noundef nonnull %18, ptr noundef nonnull %11, i64 noundef 64) #9
  %21 = icmp eq i32 %20, 48
  %22 = getelementptr inbounds nuw i8, ptr %11, i64 2
  %23 = load i8, ptr %22, align 2
  %24 = icmp eq i8 %23, 40
  %or.cond = select i1 %21, i1 %24, i1 false
  br label %25

25:                                               ; preds = %13, %15, %16, %19, %10
  %.0 = phi i1 [ true, %10 ], [ %or.cond, %19 ], [ true, %16 ], [ true, %15 ], [ false, %13 ]
  call void @llvm.lifetime.end.p0(i64 64, ptr nonnull %11) #9
  ret i1 %.0
}